ccopy_reg
_reconstructor
p1
(cargparse
Namespace
p2
c__builtin__
object
p3
NtRp4
(dp5
S'num_epochs'
p6
I1000
sS'grad_clip'
p7
F5
sS'rnn_size'
p8
I128
sS'data_dir'
p9
S'model_collections/english_songs/92825inputline_5layers_128size_1e-2_146epoch/data/'
p10
sS'vocab_size'
p11
I90
sS'learning_rate'
p12
F0.01
sS'save_dir'
p13
S'model_collections/english_songs/92825inputline_5layers_128size_1e-2_146epoch/'
p14
sS'batch_size'
p15
I50
sS'decay_rate'
p16
F0.96999999999999997
sS'seq_length'
p17
I50
sS'num_layers'
p18
I5
sS'device'
p19
S'/gpu:0'
p20
sS'model'
p21
S'lstm'
p22
sS'save_every'
p23
I1000
sb.
