ccopy_reg
_reconstructor
p1
(cargparse
Namespace
p2
c__builtin__
object
p3
NtRp4
(dp5
S'num_epochs'
p6
I1000
sS'grad_clip'
p7
F5
sS'rnn_size'
p8
I128
sS'data_dir'
p9
S'model_collections/english_songs/49311inputline_3layers_128size_1e-3_386epoch/data/'
p10
sS'vocab_size'
p11
I88
sS'learning_rate'
p12
F0.001
sS'save_dir'
p13
S'model_collections/english_songs/49311inputline_3layers_128size_1e-3_386epoch/'
p14
sS'batch_size'
p15
I50
sS'decay_rate'
p16
F0.96999999999999997
sS'seq_length'
p17
I50
sS'num_layers'
p18
I3
sS'model'
p19
S'lstm'
p20
sS'save_every'
p21
I1000
sb.
